target datalayout = "e-m:e-p270:32:32-p271:32:32-p272:64:64-i64:64-i128:128-f80:128-n8:16:32:64-S128"
target triple = "x86_64-unknown-linux-gnu"

%"class.icu_75::UnicodeString" = type { %"class.icu_75::Replaceable", %"union.icu_75::UnicodeString::StackBufferOrFields" }
%"class.icu_75::Replaceable" = type { %"class.icu_75::UObject" }
%"class.icu_75::UObject" = type { ptr }
%"union.icu_75::UnicodeString::StackBufferOrFields" = type { %struct.anon.0, [32 x i8] }
%struct.anon.0 = type { i16, i32, i32, ptr }
%"class.icu_75::EscapeTransliterator" = type { %"class.icu_75::Transliterator.base", %"class.icu_75::UnicodeString", %"class.icu_75::UnicodeString", i32, i32, i8, ptr }
%"class.icu_75::Transliterator.base" = type <{ %"class.icu_75::UObject", %"class.icu_75::UnicodeString", ptr, i32 }>

@_ZN6icu_7520EscapeTransliteratorC1ERKS0_ = unnamed_addr alias void (ptr, ptr), ptr @_ZN6icu_7520EscapeTransliteratorC2ERKS0_

; Function Attrs: mustprogress uwtable
define void @_ZN6icu_7520EscapeTransliteratorC2ERKS0_(ptr noundef nonnull align 8 dereferenceable(240) %this, ptr noundef nonnull align 8 dereferenceable(240) %o) unnamed_addr #1 align 2 personality ptr @__gxx_personality_v0 {
entry:
  %this.addr = alloca ptr, align 8
  %o.addr = alloca ptr, align 8
  %exn.slot = alloca ptr, align 8
  %ehselector.slot = alloca i32, align 4
  %saved-rvalue = alloca ptr, align 8
  %cleanup.cond = alloca i1, align 1
  store ptr %this, ptr %this.addr, align 8
  store ptr %o, ptr %o.addr, align 8
  %this1 = load ptr, ptr %this.addr, align 8
  %0 = load ptr, ptr %o.addr, align 8
  call void @_ZN6icu_7514TransliteratorC2ERKS0_(ptr noundef nonnull align 8 dereferenceable(84) %this1, ptr noundef nonnull align 8 dereferenceable(84) %0)
  store ptr getelementptr inbounds ({ [19 x ptr] }, ptr @_ZTVN6icu_7520EscapeTransliteratorE, i32 0, i32 0, i32 2), ptr %this1, align 8
  %prefix = getelementptr inbounds %"class.icu_75::EscapeTransliterator", ptr %this1, i32 0, i32 1
  %1 = load ptr, ptr %o.addr, align 8
  %prefix2 = getelementptr inbounds %"class.icu_75::EscapeTransliterator", ptr %1, i32 0, i32 1
  invoke void @_ZN6icu_7513UnicodeStringC1ERKS0_(ptr noundef nonnull align 8 dereferenceable(64) %prefix, ptr noundef nonnull align 8 dereferenceable(64) %prefix2)
          to label %invoke.cont unwind label %lpad

invoke.cont:                                      ; preds = %entry
  %suffix = getelementptr inbounds %"class.icu_75::EscapeTransliterator", ptr %this1, i32 0, i32 2
  %2 = load ptr, ptr %o.addr, align 8
  %suffix3 = getelementptr inbounds %"class.icu_75::EscapeTransliterator", ptr %2, i32 0, i32 2
  invoke void @_ZN6icu_7513UnicodeStringC1ERKS0_(ptr noundef nonnull align 8 dereferenceable(64) %suffix, ptr noundef nonnull align 8 dereferenceable(64) %suffix3)
          to label %invoke.cont5 unwind label %lpad4

invoke.cont5:                                     ; preds = %invoke.cont
  %radix = getelementptr inbounds %"class.icu_75::EscapeTransliterator", ptr %this1, i32 0, i32 3
  %3 = load ptr, ptr %o.addr, align 8
  %radix6 = getelementptr inbounds %"class.icu_75::EscapeTransliterator", ptr %3, i32 0, i32 3
  %4 = load i32, ptr %radix6, align 8
  store i32 %4, ptr %radix, align 8
  %minDigits = getelementptr inbounds %"class.icu_75::EscapeTransliterator", ptr %this1, i32 0, i32 4
  %5 = load ptr, ptr %o.addr, align 8
  %minDigits7 = getelementptr inbounds %"class.icu_75::EscapeTransliterator", ptr %5, i32 0, i32 4
  %6 = load i32, ptr %minDigits7, align 4
  store i32 %6, ptr %minDigits, align 4
  %grokSupplementals = getelementptr inbounds %"class.icu_75::EscapeTransliterator", ptr %this1, i32 0, i32 5
  %7 = load ptr, ptr %o.addr, align 8
  %grokSupplementals8 = getelementptr inbounds %"class.icu_75::EscapeTransliterator", ptr %7, i32 0, i32 5
  %8 = load i8, ptr %grokSupplementals8, align 8
  store i8 %8, ptr %grokSupplementals, align 8
  %9 = load ptr, ptr %o.addr, align 8
  %supplementalHandler = getelementptr inbounds %"class.icu_75::EscapeTransliterator", ptr %9, i32 0, i32 6
  %10 = load ptr, ptr %supplementalHandler, align 8
  %cmp = icmp ne ptr %10, null
  store i1 false, ptr %cleanup.cond, align 1
  br i1 %cmp, label %cond.true, label %cond.false

cond.true:                                        ; preds = %invoke.cont5
  %call = call noundef ptr @_ZN6icu_757UMemorynwEm(i64 noundef 240) #7
  %new.isnull = icmp eq ptr %call, null
  br i1 %new.isnull, label %new.cont, label %new.notnull

new.notnull:                                      ; preds = %cond.true
  store ptr %call, ptr %saved-rvalue, align 8
  store i1 true, ptr %cleanup.cond, align 1
  %11 = load ptr, ptr %o.addr, align 8
  %supplementalHandler9 = getelementptr inbounds %"class.icu_75::EscapeTransliterator", ptr %11, i32 0, i32 6
  %12 = load ptr, ptr %supplementalHandler9, align 8
  invoke void @_ZN6icu_7520EscapeTransliteratorC1ERKS0_(ptr noundef nonnull align 8 dereferenceable(240) %call, ptr noundef nonnull align 8 dereferenceable(240) %12)
          to label %invoke.cont11 unwind label %lpad10

invoke.cont11:                                    ; preds = %new.notnull
  br label %new.cont

new.cont:                                         ; preds = %invoke.cont11, %cond.true
  %13 = phi ptr [ %call, %invoke.cont11 ], [ null, %cond.true ]
  br label %cond.end

cond.false:                                       ; preds = %invoke.cont5
  br label %cond.end

cond.end:                                         ; preds = %cond.false, %new.cont
  %cond = phi ptr [ %13, %new.cont ], [ null, %cond.false ]
  %supplementalHandler12 = getelementptr inbounds %"class.icu_75::EscapeTransliterator", ptr %this1, i32 0, i32 6
  store ptr %cond, ptr %supplementalHandler12, align 8
  ret void

lpad:                                             ; preds = %entry
  %14 = landingpad { ptr, i32 }
          cleanup
  %15 = extractvalue { ptr, i32 } %14, 0
  store ptr %15, ptr %exn.slot, align 8
  %16 = extractvalue { ptr, i32 } %14, 1
  store i32 %16, ptr %ehselector.slot, align 4
  br label %ehcleanup13

lpad4:                                            ; preds = %invoke.cont
  %17 = landingpad { ptr, i32 }
          cleanup
  %18 = extractvalue { ptr, i32 } %17, 0
  store ptr %18, ptr %exn.slot, align 8
  %19 = extractvalue { ptr, i32 } %17, 1
  store i32 %19, ptr %ehselector.slot, align 4
  br label %ehcleanup

lpad10:                                           ; preds = %new.notnull
  %20 = landingpad { ptr, i32 }
          cleanup
  %21 = extractvalue { ptr, i32 } %20, 0
  store ptr %21, ptr %exn.slot, align 8
  %22 = extractvalue { ptr, i32 } %20, 1
  store i32 %22, ptr %ehselector.slot, align 4
  %cleanup.is_active = load i1, ptr %cleanup.cond, align 1
  br i1 %cleanup.is_active, label %cleanup.action, label %cleanup.done

cleanup.action:                                   ; preds = %lpad10
  %23 = load ptr, ptr %saved-rvalue, align 8
  call void @_ZN6icu_757UMemorydlEPv(ptr noundef %23) #7
  br label %cleanup.done

cleanup.done:                                     ; preds = %cleanup.action, %lpad10
  call void @_ZN6icu_7513UnicodeStringD1Ev(ptr noundef nonnull align 8 dereferenceable(64) %suffix) #7
  br label %ehcleanup

ehcleanup:                                        ; preds = %cleanup.done, %lpad4
  call void @_ZN6icu_7513UnicodeStringD1Ev(ptr noundef nonnull align 8 dereferenceable(64) %prefix) #7
  br label %ehcleanup13

ehcleanup13:                                      ; preds = %ehcleanup, %lpad
  call void @_ZN6icu_7514TransliteratorD2Ev(ptr noundef nonnull align 8 dereferenceable(84) %this1) #7
  br label %eh.resume

eh.resume:                                        ; preds = %ehcleanup13
  %exn = load ptr, ptr %exn.slot, align 8
  %sel = load i32, ptr %ehselector.slot, align 4
  %lpad.val = insertvalue { ptr, i32 } poison, ptr %exn, 0
  %lpad.val14 = insertvalue { ptr, i32 } %lpad.val, i32 %sel, 1
  resume { ptr, i32 } %lpad.val14
}