; Function Attrs: mustprogress uwtable
define void @_ZN6icu_7520EscapeTransliteratorC2ERKS0_(ptr noundef nonnull align 8 dereferenceable(240) %this, ptr noundef nonnull align 8 dereferenceable(240) %o) unnamed_addr #1 align 2 personality ptr @__gxx_personality_v0 {
entry:
  tail call void @_ZN6icu_7514TransliteratorC2ERKS0_(ptr noundef nonnull align 8 dereferenceable(84) %this, ptr noundef nonnull align 8 dereferenceable(84) %o)
  store ptr getelementptr inbounds ({ [19 x ptr] }, ptr @_ZTVN6icu_7520EscapeTransliteratorE, i64 0, i32 0, i64 2), ptr %this, align 8
  %prefix = getelementptr inbounds i8, ptr %this, i64 88
  %prefix2 = getelementptr inbounds i8, ptr %o, i64 88
  invoke void @_ZN6icu_7513UnicodeStringC1ERKS0_(ptr noundef nonnull align 8 dereferenceable(64) %prefix, ptr noundef nonnull align 8 dereferenceable(64) %prefix2)
          to label %invoke.cont unwind label %lpad

invoke.cont:                                      ; preds = %entry
  %suffix = getelementptr inbounds i8, ptr %this, i64 152
  %suffix3 = getelementptr inbounds i8, ptr %o, i64 152
  invoke void @_ZN6icu_7513UnicodeStringC1ERKS0_(ptr noundef nonnull align 8 dereferenceable(64) %suffix, ptr noundef nonnull align 8 dereferenceable(64) %suffix3)
          to label %invoke.cont5 unwind label %lpad4

invoke.cont5:                                     ; preds = %invoke.cont
  %radix = getelementptr inbounds i8, ptr %this, i64 216
  %radix6 = getelementptr inbounds i8, ptr %o, i64 216
  %0 = load i32, ptr %radix6, align 8
  store i32 %0, ptr %radix, align 8
  %minDigits = getelementptr inbounds i8, ptr %this, i64 220
  %minDigits7 = getelementptr inbounds i8, ptr %o, i64 220
  %1 = load i32, ptr %minDigits7, align 4
  store i32 %1, ptr %minDigits, align 4
  %grokSupplementals = getelementptr inbounds i8, ptr %this, i64 224
  %grokSupplementals8 = getelementptr inbounds i8, ptr %o, i64 224
  %2 = load i8, ptr %grokSupplementals8, align 8
  store i8 %2, ptr %grokSupplementals, align 8
  %supplementalHandler = getelementptr inbounds i8, ptr %o, i64 232
  %3 = load ptr, ptr %supplementalHandler, align 8
  %cmp.not = icmp eq ptr %3, null
  br i1 %cmp.not, label %cond.end, label %cond.true

cond.true:                                        ; preds = %invoke.cont5
  %call = tail call noundef ptr @_ZN6icu_757UMemorynwEm(i64 noundef 240) #9
  %new.isnull = icmp eq ptr %call, null
  br i1 %new.isnull, label %cond.end, label %new.notnull

new.notnull:                                      ; preds = %cond.true
  %4 = load ptr, ptr %supplementalHandler, align 8
  invoke void @_ZN6icu_7520EscapeTransliteratorC1ERKS0_(ptr noundef nonnull align 8 dereferenceable(240) %call, ptr noundef nonnull align 8 dereferenceable(240) %4)
          to label %cond.end unwind label %lpad10

cond.end:                                         ; preds = %invoke.cont5, %cond.true, %new.notnull
  %cond = phi ptr [ null, %cond.true ], [ %call, %new.notnull ], [ null, %invoke.cont5 ]
  %supplementalHandler12 = getelementptr inbounds i8, ptr %this, i64 232
  store ptr %cond, ptr %supplementalHandler12, align 8
  ret void

lpad:                                             ; preds = %entry
  %5 = landingpad { ptr, i32 }
          cleanup
  br label %ehcleanup13

lpad4:                                            ; preds = %invoke.cont
  %6 = landingpad { ptr, i32 }
          cleanup
  br label %ehcleanup

lpad10:                                           ; preds = %new.notnull
  %7 = landingpad { ptr, i32 }
          cleanup
  tail call void @_ZN6icu_757UMemorydlEPv(ptr noundef nonnull %call) #9
  tail call void @_ZN6icu_7513UnicodeStringD1Ev(ptr noundef nonnull align 8 dereferenceable(64) %suffix) #9
  br label %ehcleanup

ehcleanup:                                        ; preds = %lpad10, %lpad4
  %.pn = phi { ptr, i32 } [ %7, %lpad10 ], [ %6, %lpad4 ]
  tail call void @_ZN6icu_7513UnicodeStringD1Ev(ptr noundef nonnull align 8 dereferenceable(64) %prefix) #9
  br label %ehcleanup13

ehcleanup13:                                      ; preds = %ehcleanup, %lpad
  %.pn.pn = phi { ptr, i32 } [ %.pn, %ehcleanup ], [ %5, %lpad ]
  tail call void @_ZN6icu_7514TransliteratorD2Ev(ptr noundef nonnull align 8 dereferenceable(84) %this) #9
  resume { ptr, i32 } %.pn.pn
}